target datalayout = "e-m:e-p270:32:32-p271:32:32-p272:64:64-i64:64-i128:128-f80:128-n8:16:32:64-S128"
target triple = "x86_64-pc-linux-gnu"

%struct.Kit_DsdNtk_t_ = type { i16, i16, i16, i16, ptr, ptr, ptr }

@.str.5 = private unnamed_addr constant [2 x i8] c"!\00", align 1
@.str.8 = private unnamed_addr constant [5 x i8] c"F = \00", align 1
@stdout = external global ptr, align 8
@.str.10 = private unnamed_addr constant [11 x i8] c"Function: \00", align 1
@.str.11 = private unnamed_addr constant [2 x i8] c"\0A\00", align 1
@.str.12 = private unnamed_addr constant [9 x i8] c"Cof%d0: \00", align 1
@.str.13 = private unnamed_addr constant [9 x i8] c"Cof%d1: \00", align 1

; Function Attrs: inlinehint nounwind uwtable
define internal i32 @Abc_Lit2Var(i32 noundef %0) #4 {
  %2 = alloca i32, align 4
  store i32 %0, ptr %2, align 4, !tbaa !3
  %3 = load i32, ptr %2, align 4, !tbaa !3
  %4 = ashr i32 %3, 1
  ret i32 %4
}

; Function Attrs: inlinehint nounwind uwtable
define internal i32 @Abc_LitIsCompl(i32 noundef %0) #4 {
  %2 = alloca i32, align 4
  store i32 %0, ptr %2, align 4, !tbaa !3
  %3 = load i32, ptr %2, align 4, !tbaa !3
  %4 = and i32 %3, 1
  ret i32 %4
}

; Function Attrs: nounwind uwtable
define ptr @Kit_DsdDecompose(ptr noundef %0, i32 noundef %1) #0 {
  %3 = alloca ptr, align 8
  %4 = alloca i32, align 4
  store ptr %0, ptr %3, align 8, !tbaa !25
  store i32 %1, ptr %4, align 4, !tbaa !3
  %5 = load ptr, ptr %3, align 8, !tbaa !25
  %6 = load i32, ptr %4, align 4, !tbaa !3
  %7 = call ptr @Kit_DsdDecomposeInt(ptr noundef %5, i32 noundef %6, i32 noundef 0)
  ret ptr %7
}

; Function Attrs: nounwind uwtable
define void @Kit_DsdPrint(ptr noundef %0, ptr noundef %1) #0 {
  %3 = alloca ptr, align 8
  %4 = alloca ptr, align 8
  store ptr %0, ptr %3, align 8, !tbaa !51
  store ptr %1, ptr %4, align 8, !tbaa !37
  %5 = load ptr, ptr %3, align 8, !tbaa !51
  %6 = call i32 (ptr, ptr, ...) @fprintf(ptr noundef %5, ptr noundef @.str.8) #9
  %7 = load ptr, ptr %4, align 8, !tbaa !37
  %8 = getelementptr inbounds nuw %struct.Kit_DsdNtk_t_, ptr %7, i32 0, i32 3
  %9 = load i16, ptr %8, align 2, !tbaa !60
  %10 = zext i16 %9 to i32
  %11 = call i32 @Abc_LitIsCompl(i32 noundef %10)
  %12 = icmp ne i32 %11, 0
  br i1 %12, label %13, label %16

13:                                               ; preds = %2
  %14 = load ptr, ptr %3, align 8, !tbaa !51
  %15 = call i32 (ptr, ptr, ...) @fprintf(ptr noundef %14, ptr noundef @.str.5) #9
  br label %16

16:                                               ; preds = %13, %2
  %17 = load ptr, ptr %3, align 8, !tbaa !51
  %18 = load ptr, ptr %4, align 8, !tbaa !37
  %19 = load ptr, ptr %4, align 8, !tbaa !37
  %20 = getelementptr inbounds nuw %struct.Kit_DsdNtk_t_, ptr %19, i32 0, i32 3
  %21 = load i16, ptr %20, align 2, !tbaa !60
  %22 = zext i16 %21 to i32
  %23 = call i32 @Abc_Lit2Var(i32 noundef %22)
  call void @Kit_DsdPrint_rec(ptr noundef %17, ptr noundef %18, i32 noundef %23)
  ret void
}

; Function Attrs: inlinehint nounwind uwtable
define internal i32 @Kit_TruthWordNum(i32 noundef %0) #4 {
  %2 = alloca i32, align 4
  store i32 %0, ptr %2, align 4, !tbaa !3
  %3 = load i32, ptr %2, align 4, !tbaa !3
  %4 = icmp sle i32 %3, 5
  br i1 %4, label %5, label %6

5:                                                ; preds = %1
  br label %10

6:                                                ; preds = %1
  %7 = load i32, ptr %2, align 4, !tbaa !3
  %8 = sub nsw i32 %7, 5
  %9 = shl i32 1, %8
  br label %10

10:                                               ; preds = %6, %5
  %11 = phi i32 [ 1, %5 ], [ %9, %6 ]
  ret i32 %11
}

; Function Attrs: nounwind uwtable
define i32 @Kit_DsdTestCofs(ptr noundef %0, ptr noundef %1) #0 {
  %3 = alloca ptr, align 8
  %4 = alloca ptr, align 8
  %5 = alloca ptr, align 8
  %6 = alloca ptr, align 8
  %7 = alloca ptr, align 8
  %8 = alloca [2 x ptr], align 16
  %9 = alloca i32, align 4
  %10 = alloca ptr, align 8
  %11 = alloca i32, align 4
  %12 = alloca i32, align 4
  store ptr %0, ptr %3, align 8, !tbaa !37
  store ptr %1, ptr %4, align 8, !tbaa !25
  call void @llvm.lifetime.start.p0(i64 8, ptr %5) #9
  call void @llvm.lifetime.start.p0(i64 8, ptr %6) #9
  call void @llvm.lifetime.start.p0(i64 8, ptr %7) #9
  call void @llvm.lifetime.start.p0(i64 16, ptr %8) #9
  %13 = load ptr, ptr %3, align 8, !tbaa !37
  %14 = getelementptr inbounds nuw %struct.Kit_DsdNtk_t_, ptr %13, i32 0, i32 4
  %15 = load ptr, ptr %14, align 8, !tbaa !48
  store ptr %15, ptr %8, align 8, !tbaa !25
  %16 = getelementptr inbounds ptr, ptr %8, i64 1
  %17 = load ptr, ptr %3, align 8, !tbaa !37
  %18 = getelementptr inbounds nuw %struct.Kit_DsdNtk_t_, ptr %17, i32 0, i32 4
  %19 = load ptr, ptr %18, align 8, !tbaa !48
  %20 = load ptr, ptr %3, align 8, !tbaa !37
  %21 = getelementptr inbounds nuw %struct.Kit_DsdNtk_t_, ptr %20, i32 0, i32 0
  %22 = load i16, ptr %21, align 8, !tbaa !41
  %23 = zext i16 %22 to i32
  %24 = call i32 @Kit_TruthWordNum(i32 noundef %23)
  %25 = sext i32 %24 to i64
  %26 = getelementptr inbounds i32, ptr %19, i64 %25
  store ptr %26, ptr %16, align 8, !tbaa !25
  call void @llvm.lifetime.start.p0(i64 4, ptr %9) #9
  call void @llvm.lifetime.start.p0(i64 8, ptr %10) #9
  call void @llvm.lifetime.start.p0(i64 4, ptr %11) #9
  store i32 1, ptr %11, align 4, !tbaa !3
  call void @llvm.lifetime.start.p0(i64 4, ptr %12) #9
  store i32 0, ptr %12, align 4, !tbaa !3
  %27 = load ptr, ptr %4, align 8, !tbaa !25
  store ptr %27, ptr %10, align 8, !tbaa !25
  %28 = load i32, ptr %11, align 4, !tbaa !3
  %29 = icmp ne i32 %28, 0
  br i1 %29, label %30, label %42

30:                                               ; preds = %2
  %31 = call i32 (ptr, ...) @printf(ptr noundef @.str.10)
  %32 = load ptr, ptr @stdout, align 8, !tbaa !51
  %33 = load ptr, ptr %10, align 8, !tbaa !25
  %34 = load ptr, ptr %3, align 8, !tbaa !37
  %35 = getelementptr inbounds nuw %struct.Kit_DsdNtk_t_, ptr %34, i32 0, i32 0
  %36 = load i16, ptr %35, align 8, !tbaa !41
  %37 = zext i16 %36 to i32
  call void @Extra_PrintHexadecimal(ptr noundef %32, ptr noundef %33, i32 noundef %37)
  %38 = call i32 (ptr, ...) @printf(ptr noundef @.str.11)
  %39 = load ptr, ptr @stdout, align 8, !tbaa !51
  %40 = load ptr, ptr %3, align 8, !tbaa !37
  call void @Kit_DsdPrint(ptr noundef %39, ptr noundef %40)
  %41 = call i32 (ptr, ...) @printf(ptr noundef @.str.11)
  br label %42

42:                                               ; preds = %30, %2
  store i32 0, ptr %9, align 4, !tbaa !3
  br label %43

43:                                               ; preds = %107, %42
  %44 = load i32, ptr %9, align 4, !tbaa !3
  %45 = load ptr, ptr %3, align 8, !tbaa !37
  %46 = getelementptr inbounds nuw %struct.Kit_DsdNtk_t_, ptr %45, i32 0, i32 0
  %47 = load i16, ptr %46, align 8, !tbaa !41
  %48 = zext i16 %47 to i32
  %49 = icmp ult i32 %44, %48
  br i1 %49, label %50, label %110

50:                                               ; preds = %43
  %51 = getelementptr inbounds [2 x ptr], ptr %8, i64 0, i64 0
  %52 = load ptr, ptr %51, align 16, !tbaa !25
  %53 = load ptr, ptr %10, align 8, !tbaa !25
  %54 = load ptr, ptr %3, align 8, !tbaa !37
  %55 = getelementptr inbounds nuw %struct.Kit_DsdNtk_t_, ptr %54, i32 0, i32 0
  %56 = load i16, ptr %55, align 8, !tbaa !41
  %57 = zext i16 %56 to i32
  %58 = load i32, ptr %9, align 4, !tbaa !3
  call void @Kit_TruthCofactor0New(ptr noundef %52, ptr noundef %53, i32 noundef %57, i32 noundef %58)
  %59 = getelementptr inbounds [2 x ptr], ptr %8, i64 0, i64 0
  %60 = load ptr, ptr %59, align 16, !tbaa !25
  %61 = load ptr, ptr %3, align 8, !tbaa !37
  %62 = getelementptr inbounds nuw %struct.Kit_DsdNtk_t_, ptr %61, i32 0, i32 0
  %63 = load i16, ptr %62, align 8, !tbaa !41
  %64 = zext i16 %63 to i32
  %65 = call ptr @Kit_DsdDecompose(ptr noundef %60, i32 noundef %64)
  store ptr %65, ptr %5, align 8, !tbaa !37
  %66 = load ptr, ptr %5, align 8, !tbaa !37
  store ptr %66, ptr %7, align 8, !tbaa !37
  %67 = call ptr @Kit_DsdExpand(ptr noundef %66)
  store ptr %67, ptr %5, align 8, !tbaa !37
  %68 = load ptr, ptr %7, align 8, !tbaa !37
  call void @Kit_DsdNtkFree(ptr noundef %68)
  %69 = load i32, ptr %11, align 4, !tbaa !3
  %70 = icmp ne i32 %69, 0
  br i1 %70, label %71, label %77

71:                                               ; preds = %50
  %72 = load i32, ptr %9, align 4, !tbaa !3
  %73 = call i32 (ptr, ...) @printf(ptr noundef @.str.12, i32 noundef %72)
  %74 = load ptr, ptr @stdout, align 8, !tbaa !51
  %75 = load ptr, ptr %5, align 8, !tbaa !37
  call void @Kit_DsdPrint(ptr noundef %74, ptr noundef %75)
  %76 = call i32 (ptr, ...) @printf(ptr noundef @.str.11)
  br label %77

77:                                               ; preds = %71, %50
  %78 = getelementptr inbounds [2 x ptr], ptr %8, i64 0, i64 1
  %79 = load ptr, ptr %78, align 8, !tbaa !25
  %80 = load ptr, ptr %10, align 8, !tbaa !25
  %81 = load ptr, ptr %3, align 8, !tbaa !37
  %82 = getelementptr inbounds nuw %struct.Kit_DsdNtk_t_, ptr %81, i32 0, i32 0
  %83 = load i16, ptr %82, align 8, !tbaa !41
  %84 = zext i16 %83 to i32
  %85 = load i32, ptr %9, align 4, !tbaa !3
  call void @Kit_TruthCofactor1New(ptr noundef %79, ptr noundef %80, i32 noundef %84, i32 noundef %85)
  %86 = getelementptr inbounds [2 x ptr], ptr %8, i64 0, i64 1
  %87 = load ptr, ptr %86, align 8, !tbaa !25
  %88 = load ptr, ptr %3, align 8, !tbaa !37
  %89 = getelementptr inbounds nuw %struct.Kit_DsdNtk_t_, ptr %88, i32 0, i32 0
  %90 = load i16, ptr %89, align 8, !tbaa !41
  %91 = zext i16 %90 to i32
  %92 = call ptr @Kit_DsdDecompose(ptr noundef %87, i32 noundef %91)
  store ptr %92, ptr %6, align 8, !tbaa !37
  %93 = load ptr, ptr %6, align 8, !tbaa !37
  store ptr %93, ptr %7, align 8, !tbaa !37
  %94 = call ptr @Kit_DsdExpand(ptr noundef %93)
  store ptr %94, ptr %6, align 8, !tbaa !37
  %95 = load ptr, ptr %7, align 8, !tbaa !37
  call void @Kit_DsdNtkFree(ptr noundef %95)
  %96 = load i32, ptr %11, align 4, !tbaa !3
  %97 = icmp ne i32 %96, 0
  br i1 %97, label %98, label %104

98:                                               ; preds = %77
  %99 = load i32, ptr %9, align 4, !tbaa !3
  %100 = call i32 (ptr, ...) @printf(ptr noundef @.str.13, i32 noundef %99)
  %101 = load ptr, ptr @stdout, align 8, !tbaa !51
  %102 = load ptr, ptr %6, align 8, !tbaa !37
  call void @Kit_DsdPrint(ptr noundef %101, ptr noundef %102)
  %103 = call i32 (ptr, ...) @printf(ptr noundef @.str.11)
  br label %104

104:                                              ; preds = %98, %77
  %105 = load ptr, ptr %5, align 8, !tbaa !37
  call void @Kit_DsdNtkFree(ptr noundef %105)
  %106 = load ptr, ptr %6, align 8, !tbaa !37
  call void @Kit_DsdNtkFree(ptr noundef %106)
  br label %107

107:                                              ; preds = %104
  %108 = load i32, ptr %9, align 4, !tbaa !3
  %109 = add i32 %108, 1
  store i32 %109, ptr %9, align 4, !tbaa !3
  br label %43, !llvm.loop !139

110:                                              ; preds = %43
  %111 = load i32, ptr %11, align 4, !tbaa !3
  %112 = icmp ne i32 %111, 0
  br i1 %112, label %113, label %115

113:                                              ; preds = %110
  %114 = call i32 (ptr, ...) @printf(ptr noundef @.str.11)
  br label %115

115:                                              ; preds = %113, %110
  %116 = load i32, ptr %12, align 4, !tbaa !3
  call void @llvm.lifetime.end.p0(i64 4, ptr %12) #9
  call void @llvm.lifetime.end.p0(i64 4, ptr %11) #9
  call void @llvm.lifetime.end.p0(i64 8, ptr %10) #9
  call void @llvm.lifetime.end.p0(i64 4, ptr %9) #9
  call void @llvm.lifetime.end.p0(i64 16, ptr %8) #9
  call void @llvm.lifetime.end.p0(i64 8, ptr %7) #9
  call void @llvm.lifetime.end.p0(i64 8, ptr %6) #9
  call void @llvm.lifetime.end.p0(i64 8, ptr %5) #9
  ret i32 %116
}