; Function Attrs: nounwind uwtable
define noundef i32 @Kit_DsdTestCofs(ptr noundef readonly captures(none) %0, ptr noundef %1) local_unnamed_addr #0 {
  %3 = getelementptr inbounds nuw i8, ptr %0, i64 8
  %4 = load ptr, ptr %3, align 8, !tbaa !43
  %5 = load i16, ptr %0, align 8, !tbaa !34
  %6 = zext i16 %5 to i32
  %7 = icmp ult i16 %5, 6
  %8 = add nsw i32 %6, -5
  %9 = shl nuw i32 1, %8
  %10 = sext i32 %9 to i64
  %11 = select i1 %7, i64 1, i64 %10
  %12 = getelementptr inbounds i32, ptr %4, i64 %11
  %13 = tail call i32 (ptr, ...) @printf(ptr noundef nonnull dereferenceable(1) @.str.10)
  %14 = load ptr, ptr @stdout, align 8, !tbaa !54
  %15 = load i16, ptr %0, align 8, !tbaa !34
  %16 = zext i16 %15 to i32
  tail call void @Extra_PrintHexadecimal(ptr noundef %14, ptr noundef %1, i32 noundef %16) #27
  %putchar = tail call i32 @putchar(i32 10)
  %17 = load ptr, ptr @stdout, align 8, !tbaa !54
  %18 = tail call i64 @fwrite(ptr nonnull @.str.8, i64 4, i64 1, ptr %17)
  %19 = getelementptr inbounds nuw i8, ptr %0, i64 6
  %20 = load i16, ptr %19, align 2, !tbaa !51
  %21 = and i16 %20, 1
  %.not.i = icmp eq i16 %21, 0
  br i1 %.not.i, label %Kit_DsdPrint.exit, label %22

22:                                               ; preds = %2
  %fputc.i = tail call i32 @fputc(i32 33, ptr %17)
  %.pre.i = load i16, ptr %19, align 2, !tbaa !51
  br label %Kit_DsdPrint.exit

Kit_DsdPrint.exit:                                ; preds = %2, %22
  %23 = phi i16 [ %.pre.i, %22 ], [ %20, %2 ]
  %24 = lshr i16 %23, 1
  %25 = zext nneg i16 %24 to i32
  tail call void @Kit_DsdPrint_rec(ptr noundef %17, ptr noundef nonnull readonly %0, i32 noundef %25)
  %putchar35 = tail call i32 @putchar(i32 10)
  %26 = load i16, ptr %0, align 8, !tbaa !34
  %.not = icmp eq i16 %26, 0
  br i1 %.not, label %._crit_edge, label %.lr.ph.preheader

.lr.ph.preheader:                                 ; preds = %Kit_DsdPrint.exit
  %27 = zext i16 %26 to i32
  br label %.lr.ph

.lr.ph:                                           ; preds = %.lr.ph.preheader, %Kit_DsdPrint.exit46
  %28 = phi i32 [ %61, %Kit_DsdPrint.exit46 ], [ %27, %.lr.ph.preheader ]
  %.047 = phi i32 [ %59, %Kit_DsdPrint.exit46 ], [ 0, %.lr.ph.preheader ]
  tail call void @Kit_TruthCofactor0New(ptr noundef %4, ptr noundef %1, i32 noundef %28, i32 noundef %.047) #27
  %29 = load i16, ptr %0, align 8, !tbaa !34
  %30 = zext i16 %29 to i32
  %31 = tail call noundef ptr @Kit_DsdDecomposeInt(ptr noundef %4, i32 noundef %30, i32 noundef 0)
  %32 = tail call ptr @Kit_DsdExpand(ptr noundef %31)
  tail call void @Kit_DsdNtkFree(ptr noundef %31)
  %33 = tail call i32 (ptr, ...) @printf(ptr noundef nonnull dereferenceable(1) @.str.12, i32 noundef %.047)
  %34 = load ptr, ptr @stdout, align 8, !tbaa !54
  %35 = tail call i64 @fwrite(ptr nonnull @.str.8, i64 4, i64 1, ptr %34)
  %36 = getelementptr inbounds nuw i8, ptr %32, i64 6
  %37 = load i16, ptr %36, align 2, !tbaa !51
  %38 = and i16 %37, 1
  %.not.i39 = icmp eq i16 %38, 0
  br i1 %.not.i39, label %Kit_DsdPrint.exit42, label %39

39:                                               ; preds = %.lr.ph
  %fputc.i40 = tail call i32 @fputc(i32 33, ptr %34)
  %.pre.i41 = load i16, ptr %36, align 2, !tbaa !51
  br label %Kit_DsdPrint.exit42

Kit_DsdPrint.exit42:                              ; preds = %.lr.ph, %39
  %40 = phi i16 [ %.pre.i41, %39 ], [ %37, %.lr.ph ]
  %41 = lshr i16 %40, 1
  %42 = zext nneg i16 %41 to i32
  tail call void @Kit_DsdPrint_rec(ptr noundef %34, ptr noundef nonnull readonly %32, i32 noundef %42)
  %putchar37 = tail call i32 @putchar(i32 10)
  %43 = load i16, ptr %0, align 8, !tbaa !34
  %44 = zext i16 %43 to i32
  tail call void @Kit_TruthCofactor1New(ptr noundef nonnull %12, ptr noundef %1, i32 noundef %44, i32 noundef %.047) #27
  %45 = load i16, ptr %0, align 8, !tbaa !34
  %46 = zext i16 %45 to i32
  %47 = tail call noundef ptr @Kit_DsdDecomposeInt(ptr noundef nonnull %12, i32 noundef %46, i32 noundef 0)
  %48 = tail call ptr @Kit_DsdExpand(ptr noundef %47)
  tail call void @Kit_DsdNtkFree(ptr noundef %47)
  %49 = tail call i32 (ptr, ...) @printf(ptr noundef nonnull dereferenceable(1) @.str.13, i32 noundef %.047)
  %50 = load ptr, ptr @stdout, align 8, !tbaa !54
  %51 = tail call i64 @fwrite(ptr nonnull @.str.8, i64 4, i64 1, ptr %50)
  %52 = getelementptr inbounds nuw i8, ptr %48, i64 6
  %53 = load i16, ptr %52, align 2, !tbaa !51
  %54 = and i16 %53, 1
  %.not.i43 = icmp eq i16 %54, 0
  br i1 %.not.i43, label %Kit_DsdPrint.exit46, label %55

55:                                               ; preds = %Kit_DsdPrint.exit42
  %fputc.i44 = tail call i32 @fputc(i32 33, ptr %50)
  %.pre.i45 = load i16, ptr %52, align 2, !tbaa !51
  br label %Kit_DsdPrint.exit46

Kit_DsdPrint.exit46:                              ; preds = %Kit_DsdPrint.exit42, %55
  %56 = phi i16 [ %.pre.i45, %55 ], [ %53, %Kit_DsdPrint.exit42 ]
  %57 = lshr i16 %56, 1
  %58 = zext nneg i16 %57 to i32
  tail call void @Kit_DsdPrint_rec(ptr noundef %50, ptr noundef nonnull readonly %48, i32 noundef %58)
  %putchar38 = tail call i32 @putchar(i32 10)
  tail call void @Kit_DsdNtkFree(ptr noundef nonnull %32)
  tail call void @Kit_DsdNtkFree(ptr noundef nonnull %48)
  %59 = add nuw nsw i32 %.047, 1
  %60 = load i16, ptr %0, align 8, !tbaa !34
  %61 = zext i16 %60 to i32
  %62 = icmp samesign ult i32 %59, %61
  br i1 %62, label %.lr.ph, label %._crit_edge, !llvm.loop !128

._crit_edge:                                      ; preds = %Kit_DsdPrint.exit46, %Kit_DsdPrint.exit
  %putchar36 = tail call i32 @putchar(i32 10)
  ret i32 0
}